target datalayout = "e-m:e-p270:32:32-p271:32:32-p272:64:64-i64:64-i128:128-f80:128-n8:16:32:64-S128"
target triple = "x86_64-pc-linux-gnu"

%struct._zval_struct = type { %union._zend_value, %union.anon, %union.anon.2 }
%union._zend_value = type { i64 }
%union.anon = type { i32 }
%union.anon.2 = type { i32 }
%struct.anon.0 = type { i8, i8, %union.anon.1 }
%union.anon.1 = type { i16 }

; Function Attrs: alwaysinline nounwind uwtable
define internal zeroext i8 @zval_get_type(ptr noundef %0) #1 {
  %2 = alloca ptr, align 8
  store ptr %0, ptr %2, align 8, !tbaa !12
  %3 = load ptr, ptr %2, align 8, !tbaa !12
  %4 = getelementptr inbounds nuw %struct._zval_struct, ptr %3, i32 0, i32 1
  %5 = getelementptr inbounds nuw %struct.anon.0, ptr %4, i32 0, i32 0
  %6 = load i8, ptr %5, align 8, !tbaa !11
  ret i8 %6
}

; Function Attrs: nounwind uwtable
define dso_local i64 @zval_try_get_long(ptr noundef %0, ptr noundef %1) #0 {
  %3 = alloca i64, align 8
  %4 = alloca ptr, align 8
  %5 = alloca ptr, align 8
  store ptr %0, ptr %4, align 8, !tbaa !12
  store ptr %1, ptr %5, align 8, !tbaa !55
  %6 = load ptr, ptr %4, align 8, !tbaa !12
  %7 = call zeroext i8 @zval_get_type(ptr noundef %6)
  %8 = zext i8 %7 to i32
  %9 = icmp eq i32 %8, 4
  %10 = xor i1 %9, true
  %11 = xor i1 %10, true
  %12 = zext i1 %11 to i32
  %13 = sext i32 %12 to i64
  %14 = call i64 @llvm.expect.i64(i64 %13, i64 1)
  %15 = icmp ne i64 %14, 0
  br i1 %15, label %16, label %21

16:                                               ; preds = %2
  %17 = load ptr, ptr %5, align 8, !tbaa !55
  store i8 0, ptr %17, align 1, !tbaa !51
  %18 = load ptr, ptr %4, align 8, !tbaa !12
  %19 = getelementptr inbounds nuw %struct._zval_struct, ptr %18, i32 0, i32 0
  %20 = load i64, ptr %19, align 8, !tbaa !11
  store i64 %20, ptr %3, align 8
  br label %25

21:                                               ; preds = %2
  %22 = load ptr, ptr %4, align 8, !tbaa !12
  %23 = load ptr, ptr %5, align 8, !tbaa !55
  %24 = call i64 @zendi_try_get_long(ptr noundef %22, ptr noundef %23)
  store i64 %24, ptr %3, align 8
  br label %25

25:                                               ; preds = %21, %16
  %26 = load i64, ptr %3, align 8
  ret i64 %26
}