; Function Attrs: nounwind uwtable
define dso_local i64 @zval_try_get_long(ptr noundef readonly captures(none) %0, ptr noundef writeonly captures(none) initializes((0, 1)) %1) local_unnamed_addr #1 {
  %3 = getelementptr inbounds nuw i8, ptr %0, i64 8
  %4 = load i8, ptr %3, align 8, !tbaa !4
  %5 = icmp eq i8 %4, 4
  br i1 %5, label %6, label %8, !prof !38

6:                                                ; preds = %2
  store i8 0, ptr %1, align 1, !tbaa !39
  %7 = load i64, ptr %0, align 8, !tbaa !4
  br label %10

8:                                                ; preds = %2
  %9 = tail call fastcc i64 @zendi_try_get_long(ptr noundef nonnull %0, ptr noundef %1)
  br label %10

10:                                               ; preds = %8, %6
  %.0 = phi i64 [ %7, %6 ], [ %9, %8 ]
  ret i64 %.0
}